target datalayout = "e-m:e-p270:32:32-p271:32:32-p272:64:64-i64:64-i128:128-f80:128-n8:16:32:64-S128"
target triple = "x86_64-pc-linux-gnu"

%struct.compile_block_8 = type { ptr, ptr, ptr, ptr, ptr, ptr, ptr, ptr, ptr, ptr, i64, [10 x i64], i64, i16, i16, i16, i16, ptr, i32, i32, i32, i32, i32, ptr, ptr, ptr, i32, i32, i32, i32, i32, i32, [4 x i8], i32, i32, i32, i32, i32, i32, i32 }

; Function Attrs: nounwind uwtable
define internal void @add_name_to_table(ptr noundef %0, ptr noundef %1, i32 noundef %2, i32 noundef %3, i32 noundef %4) #0 {
  %6 = alloca ptr, align 8
  %7 = alloca ptr, align 8
  %8 = alloca i32, align 4
  %9 = alloca i32, align 4
  %10 = alloca i32, align 4
  %11 = alloca i32, align 4
  %12 = alloca ptr, align 8
  %13 = alloca i32, align 4
  store ptr %0, ptr %6, align 8
  store ptr %1, ptr %7, align 8
  store i32 %2, ptr %8, align 4
  store i32 %3, ptr %9, align 4
  store i32 %4, ptr %10, align 4
  %14 = load ptr, ptr %6, align 8
  %15 = getelementptr inbounds %struct.compile_block_8, ptr %14, i32 0, i32 9
  %16 = load ptr, ptr %15, align 8
  store ptr %16, ptr %12, align 8
  store i32 0, ptr %11, align 4
  br label %17

17:                                               ; preds = %71, %5
  %18 = load i32, ptr %11, align 4
  %19 = load i32, ptr %10, align 4
  %20 = icmp ult i32 %18, %19
  br i1 %20, label %21, label %74

21:                                               ; preds = %17
  %22 = load ptr, ptr %7, align 8
  %23 = load ptr, ptr %12, align 8
  %24 = getelementptr inbounds i8, ptr %23, i64 2
  %25 = load i32, ptr %8, align 4
  %26 = mul nsw i32 %25, 1
  %27 = sext i32 %26 to i64
  %28 = call i32 @memcmp(ptr noundef %22, ptr noundef %24, i64 noundef %27) #6
  store i32 %28, ptr %13, align 4
  %29 = load i32, ptr %13, align 4
  %30 = icmp eq i32 %29, 0
  br i1 %30, label %31, label %41

31:                                               ; preds = %21
  %32 = load ptr, ptr %12, align 8
  %33 = load i32, ptr %8, align 4
  %34 = add nsw i32 2, %33
  %35 = sext i32 %34 to i64
  %36 = getelementptr inbounds i8, ptr %32, i64 %35
  %37 = load i8, ptr %36, align 1
  %38 = zext i8 %37 to i32
  %39 = icmp ne i32 %38, 0
  br i1 %39, label %40, label %41

40:                                               ; preds = %31
  store i32 -1, ptr %13, align 4
  br label %41

41:                                               ; preds = %40, %31, %21
  %42 = load i32, ptr %13, align 4
  %43 = icmp slt i32 %42, 0
  br i1 %43, label %44, label %63

44:                                               ; preds = %41
  %45 = load ptr, ptr %12, align 8
  %46 = load ptr, ptr %6, align 8
  %47 = getelementptr inbounds %struct.compile_block_8, ptr %46, i32 0, i32 14
  %48 = load i16, ptr %47, align 2
  %49 = zext i16 %48 to i32
  %50 = sext i32 %49 to i64
  %51 = getelementptr inbounds i8, ptr %45, i64 %50
  %52 = load ptr, ptr %12, align 8
  %53 = load i32, ptr %10, align 4
  %54 = load i32, ptr %11, align 4
  %55 = sub i32 %53, %54
  %56 = load ptr, ptr %6, align 8
  %57 = getelementptr inbounds %struct.compile_block_8, ptr %56, i32 0, i32 14
  %58 = load i16, ptr %57, align 2
  %59 = zext i16 %58 to i32
  %60 = mul i32 %55, %59
  %61 = mul i32 %60, 1
  %62 = zext i32 %61 to i64
  call void @llvm.memmove.p0.p0.i64(ptr align 1 %51, ptr align 1 %52, i64 %62, i1 false)
  br label %74

63:                                               ; preds = %41
  %64 = load ptr, ptr %6, align 8
  %65 = getelementptr inbounds %struct.compile_block_8, ptr %64, i32 0, i32 14
  %66 = load i16, ptr %65, align 2
  %67 = zext i16 %66 to i32
  %68 = load ptr, ptr %12, align 8
  %69 = sext i32 %67 to i64
  %70 = getelementptr inbounds i8, ptr %68, i64 %69
  store ptr %70, ptr %12, align 8
  br label %71

71:                                               ; preds = %63
  %72 = load i32, ptr %11, align 4
  %73 = add i32 %72, 1
  store i32 %73, ptr %11, align 4
  br label %17

74:                                               ; preds = %44, %17
  %75 = load i32, ptr %9, align 4
  %76 = lshr i32 %75, 8
  %77 = trunc i32 %76 to i8
  %78 = load ptr, ptr %12, align 8
  %79 = getelementptr inbounds i8, ptr %78, i64 0
  store i8 %77, ptr %79, align 1
  %80 = load i32, ptr %9, align 4
  %81 = and i32 %80, 255
  %82 = trunc i32 %81 to i8
  %83 = load ptr, ptr %12, align 8
  %84 = getelementptr inbounds i8, ptr %83, i64 1
  store i8 %82, ptr %84, align 1
  %85 = load ptr, ptr %12, align 8
  %86 = getelementptr inbounds i8, ptr %85, i64 2
  %87 = load ptr, ptr %7, align 8
  %88 = load i32, ptr %8, align 4
  %89 = mul nsw i32 %88, 1
  %90 = sext i32 %89 to i64
  call void @llvm.memcpy.p0.p0.i64(ptr align 1 %86, ptr align 1 %87, i64 %90, i1 false)
  %91 = load ptr, ptr %12, align 8
  %92 = getelementptr inbounds i8, ptr %91, i64 2
  %93 = load i32, ptr %8, align 4
  %94 = sext i32 %93 to i64
  %95 = getelementptr inbounds i8, ptr %92, i64 %94
  %96 = load ptr, ptr %6, align 8
  %97 = getelementptr inbounds %struct.compile_block_8, ptr %96, i32 0, i32 14
  %98 = load i16, ptr %97, align 2
  %99 = zext i16 %98 to i32
  %100 = load i32, ptr %8, align 4
  %101 = sub nsw i32 %99, %100
  %102 = sub nsw i32 %101, 2
  %103 = mul nsw i32 %102, 1
  %104 = sext i32 %103 to i64
  call void @llvm.memset.p0.i64(ptr align 1 %95, i8 0, i64 %104, i1 false)
  ret void
}