; Function Attrs: nofree nounwind memory(readwrite, inaccessiblemem: none) uwtable
define internal fastcc void @add_name_to_table(ptr nocapture noundef readonly %0, ptr nocapture noundef readonly %1, i32 noundef %2, i32 noundef %3, i32 noundef %4) unnamed_addr #6 {
  %6 = getelementptr inbounds i8, ptr %0, i64 72
  %7 = load ptr, ptr %6, align 8
  %.not41 = icmp eq i32 %4, 0
  %.pre = zext nneg i32 %2 to i64
  br i1 %.not41, label %.loopexit, label %.lr.ph

.lr.ph:                                           ; preds = %5
  %8 = add nuw nsw i32 %2, 2
  %9 = zext nneg i32 %8 to i64
  %10 = getelementptr inbounds i8, ptr %0, i64 178
  br label %11

11:                                               ; preds = %.lr.ph, %.thread34
  %.02940 = phi ptr [ %7, %.lr.ph ], [ %29, %.thread34 ]
  %.03039 = phi i32 [ 0, %.lr.ph ], [ %30, %.thread34 ]
  %12 = getelementptr inbounds i8, ptr %.02940, i64 2
  %13 = tail call i32 @memcmp(ptr noundef %1, ptr noundef nonnull %12, i64 noundef %.pre) #17
  %14 = icmp eq i32 %13, 0
  br i1 %14, label %15, label %18

15:                                               ; preds = %11
  %16 = getelementptr inbounds i8, ptr %.02940, i64 %9
  %17 = load i8, ptr %16, align 1
  %.not = icmp eq i8 %17, 0
  br i1 %.not, label %.thread34, label %.thread

18:                                               ; preds = %11
  %19 = icmp slt i32 %13, 0
  br i1 %19, label %.thread, label %.thread34

.thread:                                          ; preds = %15, %18
  %20 = load i16, ptr %10, align 2
  %21 = zext i16 %20 to i32
  %22 = zext i16 %20 to i64
  %23 = getelementptr inbounds i8, ptr %.02940, i64 %22
  %24 = sub nsw i32 %4, %.03039
  %25 = mul i32 %24, %21
  %26 = zext i32 %25 to i64
  tail call void @llvm.memmove.p0.p0.i64(ptr align 1 %23, ptr align 1 %.02940, i64 %26, i1 false)
  br label %.loopexit

.thread34:                                        ; preds = %15, %18
  %27 = load i16, ptr %10, align 2
  %28 = zext i16 %27 to i64
  %29 = getelementptr inbounds i8, ptr %.02940, i64 %28
  %30 = add nuw i32 %.03039, 1
  %exitcond.not = icmp eq i32 %30, %4
  br i1 %exitcond.not, label %.loopexit, label %11

.loopexit:                                        ; preds = %.thread34, %5, %.thread
  %.02937 = phi ptr [ %.02940, %.thread ], [ %7, %5 ], [ %29, %.thread34 ]
  %31 = lshr i32 %3, 8
  %32 = trunc i32 %31 to i8
  store i8 %32, ptr %.02937, align 1
  %33 = trunc i32 %3 to i8
  %34 = getelementptr inbounds i8, ptr %.02937, i64 1
  store i8 %33, ptr %34, align 1
  %35 = getelementptr inbounds i8, ptr %.02937, i64 2
  tail call void @llvm.memcpy.p0.p0.i64(ptr nonnull align 1 %35, ptr align 1 %1, i64 %.pre, i1 false)
  %36 = getelementptr inbounds i8, ptr %35, i64 %.pre
  %37 = getelementptr inbounds i8, ptr %0, i64 178
  %38 = load i16, ptr %37, align 2
  %39 = zext i16 %38 to i32
  %reass.sub = sub i32 %39, %2
  %40 = add i32 %reass.sub, -2
  %41 = sext i32 %40 to i64
  tail call void @llvm.memset.p0.i64(ptr nonnull align 1 %36, i8 0, i64 %41, i1 false)
  ret void
}